; Function Attrs: nounwind uwtable
define i32 @lv_group_send_data(ptr noundef readonly %0, i32 noundef %1) local_unnamed_addr #0 {
  %3 = alloca i32, align 4
  store i32 %1, ptr %3, align 4, !tbaa !45
  %.not = icmp eq ptr %0, null
  br i1 %.not, label %.preheader, label %4

.preheader:                                       ; preds = %2, %.preheader
  br label %.preheader

4:                                                ; preds = %2
  %5 = getelementptr inbounds nuw i8, ptr %0, i64 24
  %6 = load ptr, ptr %5, align 8, !tbaa !3
  %7 = icmp eq ptr %6, null
  br i1 %7, label %lv_group_get_focused.exit.thread, label %lv_group_get_focused.exit

lv_group_get_focused.exit:                        ; preds = %4
  %8 = load ptr, ptr %6, align 8, !tbaa !11
  %9 = icmp eq ptr %8, null
  br i1 %9, label %lv_group_get_focused.exit.thread, label %10

10:                                               ; preds = %lv_group_get_focused.exit
  %11 = tail call zeroext i1 @lv_obj_has_state(ptr noundef nonnull %8, i16 noundef zeroext 128) #10
  br i1 %11, label %lv_group_get_focused.exit.thread, label %12

12:                                               ; preds = %10
  %13 = call i32 @lv_obj_send_event(ptr noundef nonnull %8, i32 noundef 17, ptr noundef nonnull %3) #10
  br label %lv_group_get_focused.exit.thread

lv_group_get_focused.exit.thread:                 ; preds = %4, %10, %lv_group_get_focused.exit, %12
  %.0 = phi i32 [ %13, %12 ], [ 1, %lv_group_get_focused.exit ], [ 1, %10 ], [ 1, %4 ]
  ret i32 %.0
}